target datalayout = "e-m:e-p270:32:32-p271:32:32-p272:64:64-i64:64-i128:128-f80:128-n8:16:32:64-S128"
target triple = "x86_64-pc-linux-gnu"

%struct.Vec_Int_t_ = type { i32, i32, ptr }

; Function Attrs: inlinehint nounwind uwtable
define internal void @Vec_IntGrow(ptr noundef %0, i32 noundef %1) #2 {
  %3 = alloca ptr, align 8
  %4 = alloca i32, align 4
  store ptr %0, ptr %3, align 8, !tbaa !12
  store i32 %1, ptr %4, align 4, !tbaa !10
  %5 = load ptr, ptr %3, align 8, !tbaa !12
  %6 = getelementptr inbounds nuw %struct.Vec_Int_t_, ptr %5, i32 0, i32 0
  %7 = load i32, ptr %6, align 8, !tbaa !17
  %8 = load i32, ptr %4, align 4, !tbaa !10
  %9 = icmp sge i32 %7, %8
  br i1 %9, label %10, label %11

10:                                               ; preds = %2
  br label %36

11:                                               ; preds = %2
  %12 = load ptr, ptr %3, align 8, !tbaa !12
  %13 = getelementptr inbounds nuw %struct.Vec_Int_t_, ptr %12, i32 0, i32 2
  %14 = load ptr, ptr %13, align 8, !tbaa !18
  %15 = icmp ne ptr %14, null
  br i1 %15, label %16, label %24

16:                                               ; preds = %11
  %17 = load ptr, ptr %3, align 8, !tbaa !12
  %18 = getelementptr inbounds nuw %struct.Vec_Int_t_, ptr %17, i32 0, i32 2
  %19 = load ptr, ptr %18, align 8, !tbaa !18
  %20 = load i32, ptr %4, align 4, !tbaa !10
  %21 = sext i32 %20 to i64
  %22 = mul i64 4, %21
  %23 = call ptr @realloc(ptr noundef %19, i64 noundef %22) #17
  br label %29

24:                                               ; preds = %11
  %25 = load i32, ptr %4, align 4, !tbaa !10
  %26 = sext i32 %25 to i64
  %27 = mul i64 4, %26
  %28 = call noalias ptr @malloc(i64 noundef %27) #15
  br label %29

29:                                               ; preds = %24, %16
  %30 = phi ptr [ %23, %16 ], [ %28, %24 ]
  %31 = load ptr, ptr %3, align 8, !tbaa !12
  %32 = getelementptr inbounds nuw %struct.Vec_Int_t_, ptr %31, i32 0, i32 2
  store ptr %30, ptr %32, align 8, !tbaa !18
  %33 = load i32, ptr %4, align 4, !tbaa !10
  %34 = load ptr, ptr %3, align 8, !tbaa !12
  %35 = getelementptr inbounds nuw %struct.Vec_Int_t_, ptr %34, i32 0, i32 0
  store i32 %33, ptr %35, align 8, !tbaa !17
  br label %36

36:                                               ; preds = %29, %10
  ret void
}

; Function Attrs: inlinehint nounwind uwtable
define internal i32 @Gia_ManAppendMux(ptr noundef %0, i32 noundef %1, i32 noundef %2, i32 noundef %3) #2 {
  %5 = alloca ptr, align 8
  %6 = alloca i32, align 4
  %7 = alloca i32, align 4
  %8 = alloca i32, align 4
  %9 = alloca i32, align 4
  %10 = alloca i32, align 4
  store ptr %0, ptr %5, align 8, !tbaa !3
  store i32 %1, ptr %6, align 4, !tbaa !10
  store i32 %2, ptr %7, align 4, !tbaa !10
  store i32 %3, ptr %8, align 4, !tbaa !10
  call void @llvm.lifetime.start.p0(i64 4, ptr %9) #14
  %11 = load ptr, ptr %5, align 8, !tbaa !3
  %12 = load i32, ptr %6, align 4, !tbaa !10
  %13 = call i32 @Abc_LitNot(i32 noundef %12)
  %14 = load i32, ptr %8, align 4, !tbaa !10
  %15 = call i32 @Gia_ManAppendAnd(ptr noundef %11, i32 noundef %13, i32 noundef %14)
  store i32 %15, ptr %9, align 4, !tbaa !10
  call void @llvm.lifetime.start.p0(i64 4, ptr %10) #14
  %16 = load ptr, ptr %5, align 8, !tbaa !3
  %17 = load i32, ptr %6, align 4, !tbaa !10
  %18 = load i32, ptr %7, align 4, !tbaa !10
  %19 = call i32 @Gia_ManAppendAnd(ptr noundef %16, i32 noundef %17, i32 noundef %18)
  store i32 %19, ptr %10, align 4, !tbaa !10
  %20 = load ptr, ptr %5, align 8, !tbaa !3
  %21 = load i32, ptr %9, align 4, !tbaa !10
  %22 = call i32 @Abc_LitNot(i32 noundef %21)
  %23 = load i32, ptr %10, align 4, !tbaa !10
  %24 = call i32 @Abc_LitNot(i32 noundef %23)
  %25 = call i32 @Gia_ManAppendAnd(ptr noundef %20, i32 noundef %22, i32 noundef %24)
  %26 = call i32 @Abc_LitNotCond(i32 noundef %25, i32 noundef 1)
  call void @llvm.lifetime.end.p0(i64 4, ptr %10) #14
  call void @llvm.lifetime.end.p0(i64 4, ptr %9) #14
  ret i32 %26
}

; Function Attrs: inlinehint nounwind uwtable
define internal i32 @Abc_LitNot(i32 noundef %0) #2 {
  %2 = alloca i32, align 4
  store i32 %0, ptr %2, align 4, !tbaa !10
  %3 = load i32, ptr %2, align 4, !tbaa !10
  %4 = xor i32 %3, 1
  ret i32 %4
}

; Function Attrs: inlinehint nounwind uwtable
define internal void @Vec_IntPush(ptr noundef %0, i32 noundef %1) #2 {
  %3 = alloca ptr, align 8
  %4 = alloca i32, align 4
  store ptr %0, ptr %3, align 8, !tbaa !12
  store i32 %1, ptr %4, align 4, !tbaa !10
  %5 = load ptr, ptr %3, align 8, !tbaa !12
  %6 = getelementptr inbounds nuw %struct.Vec_Int_t_, ptr %5, i32 0, i32 1
  %7 = load i32, ptr %6, align 4, !tbaa !14
  %8 = load ptr, ptr %3, align 8, !tbaa !12
  %9 = getelementptr inbounds nuw %struct.Vec_Int_t_, ptr %8, i32 0, i32 0
  %10 = load i32, ptr %9, align 8, !tbaa !17
  %11 = icmp eq i32 %7, %10
  br i1 %11, label %12, label %26

12:                                               ; preds = %2
  %13 = load ptr, ptr %3, align 8, !tbaa !12
  %14 = getelementptr inbounds nuw %struct.Vec_Int_t_, ptr %13, i32 0, i32 0
  %15 = load i32, ptr %14, align 8, !tbaa !17
  %16 = icmp slt i32 %15, 16
  br i1 %16, label %17, label %19

17:                                               ; preds = %12
  %18 = load ptr, ptr %3, align 8, !tbaa !12
  call void @Vec_IntGrow(ptr noundef %18, i32 noundef 16)
  br label %25

19:                                               ; preds = %12
  %20 = load ptr, ptr %3, align 8, !tbaa !12
  %21 = load ptr, ptr %3, align 8, !tbaa !12
  %22 = getelementptr inbounds nuw %struct.Vec_Int_t_, ptr %21, i32 0, i32 0
  %23 = load i32, ptr %22, align 8, !tbaa !17
  %24 = mul nsw i32 2, %23
  call void @Vec_IntGrow(ptr noundef %20, i32 noundef %24)
  br label %25

25:                                               ; preds = %19, %17
  br label %26

26:                                               ; preds = %25, %2
  %27 = load i32, ptr %4, align 4, !tbaa !10
  %28 = load ptr, ptr %3, align 8, !tbaa !12
  %29 = getelementptr inbounds nuw %struct.Vec_Int_t_, ptr %28, i32 0, i32 2
  %30 = load ptr, ptr %29, align 8, !tbaa !18
  %31 = load ptr, ptr %3, align 8, !tbaa !12
  %32 = getelementptr inbounds nuw %struct.Vec_Int_t_, ptr %31, i32 0, i32 1
  %33 = load i32, ptr %32, align 4, !tbaa !14
  %34 = add nsw i32 %33, 1
  store i32 %34, ptr %32, align 4, !tbaa !14
  %35 = sext i32 %33 to i64
  %36 = getelementptr inbounds i32, ptr %30, i64 %35
  store i32 %27, ptr %36, align 4, !tbaa !10
  ret void
}

; Function Attrs: inlinehint nounwind uwtable
define internal i32 @Gia_ManAppendXor(ptr noundef %0, i32 noundef %1, i32 noundef %2) #2 {
  %4 = alloca ptr, align 8
  %5 = alloca i32, align 4
  %6 = alloca i32, align 4
  store ptr %0, ptr %4, align 8, !tbaa !3
  store i32 %1, ptr %5, align 4, !tbaa !10
  store i32 %2, ptr %6, align 4, !tbaa !10
  %7 = load ptr, ptr %4, align 8, !tbaa !3
  %8 = load i32, ptr %5, align 4, !tbaa !10
  %9 = load i32, ptr %6, align 4, !tbaa !10
  %10 = call i32 @Abc_LitNot(i32 noundef %9)
  %11 = load i32, ptr %6, align 4, !tbaa !10
  %12 = call i32 @Gia_ManAppendMux(ptr noundef %7, i32 noundef %8, i32 noundef %10, i32 noundef %11)
  ret i32 %12
}

; Function Attrs: inlinehint nounwind uwtable
define internal i32 @Abc_LitNotCond(i32 noundef %0, i32 noundef %1) #2 {
  %3 = alloca i32, align 4
  %4 = alloca i32, align 4
  store i32 %0, ptr %3, align 4, !tbaa !10
  store i32 %1, ptr %4, align 4, !tbaa !10
  %5 = load i32, ptr %3, align 4, !tbaa !10
  %6 = load i32, ptr %4, align 4, !tbaa !10
  %7 = icmp sgt i32 %6, 0
  %8 = zext i1 %7 to i32
  %9 = xor i32 %5, %8
  ret i32 %9
}

; Function Attrs: inlinehint nounwind uwtable
define internal i32 @Abc_LitIsCompl(i32 noundef %0) #2 {
  %2 = alloca i32, align 4
  store i32 %0, ptr %2, align 4, !tbaa !10
  %3 = load i32, ptr %2, align 4, !tbaa !10
  %4 = and i32 %3, 1
  ret i32 %4
}

; Function Attrs: inlinehint nounwind uwtable
define internal i32 @Abc_Lit2Var(i32 noundef %0) #2 {
  %2 = alloca i32, align 4
  store i32 %0, ptr %2, align 4, !tbaa !10
  %3 = load i32, ptr %2, align 4, !tbaa !10
  %4 = ashr i32 %3, 1
  ret i32 %4
}

; Function Attrs: inlinehint nounwind uwtable
define internal i32 @Vec_IntEntry(ptr noundef %0, i32 noundef %1) #2 {
  %3 = alloca ptr, align 8
  %4 = alloca i32, align 4
  store ptr %0, ptr %3, align 8, !tbaa !12
  store i32 %1, ptr %4, align 4, !tbaa !10
  %5 = load ptr, ptr %3, align 8, !tbaa !12
  %6 = getelementptr inbounds nuw %struct.Vec_Int_t_, ptr %5, i32 0, i32 2
  %7 = load ptr, ptr %6, align 8, !tbaa !18
  %8 = load i32, ptr %4, align 4, !tbaa !10
  %9 = sext i32 %8 to i64
  %10 = getelementptr inbounds i32, ptr %7, i64 %9
  %11 = load i32, ptr %10, align 4, !tbaa !10
  ret i32 %11
}

; Function Attrs: inlinehint nounwind uwtable
define internal i32 @Vec_IntSize(ptr noundef %0) #2 {
  %2 = alloca ptr, align 8
  store ptr %0, ptr %2, align 8, !tbaa !12
  %3 = load ptr, ptr %2, align 8, !tbaa !12
  %4 = getelementptr inbounds nuw %struct.Vec_Int_t_, ptr %3, i32 0, i32 1
  %5 = load i32, ptr %4, align 4, !tbaa !14
  ret i32 %5
}

; Function Attrs: inlinehint nounwind uwtable
define internal void @Vec_IntClear(ptr noundef %0) #2 {
  %2 = alloca ptr, align 8
  store ptr %0, ptr %2, align 8, !tbaa !12
  %3 = load ptr, ptr %2, align 8, !tbaa !12
  %4 = getelementptr inbounds nuw %struct.Vec_Int_t_, ptr %3, i32 0, i32 1
  store i32 0, ptr %4, align 4, !tbaa !14
  ret void
}

; Function Attrs: inlinehint nounwind uwtable
define internal i32 @Vec_IntEntryLast(ptr noundef %0) #2 {
  %2 = alloca ptr, align 8
  store ptr %0, ptr %2, align 8, !tbaa !12
  %3 = load ptr, ptr %2, align 8, !tbaa !12
  %4 = getelementptr inbounds nuw %struct.Vec_Int_t_, ptr %3, i32 0, i32 2
  %5 = load ptr, ptr %4, align 8, !tbaa !18
  %6 = load ptr, ptr %2, align 8, !tbaa !12
  %7 = getelementptr inbounds nuw %struct.Vec_Int_t_, ptr %6, i32 0, i32 1
  %8 = load i32, ptr %7, align 4, !tbaa !14
  %9 = sub nsw i32 %8, 1
  %10 = sext i32 %9 to i64
  %11 = getelementptr inbounds i32, ptr %5, i64 %10
  %12 = load i32, ptr %11, align 4, !tbaa !10
  ret i32 %12
}

; Function Attrs: nounwind uwtable
define i32 @Gia_ManConstructFromMap(ptr noundef %0, ptr noundef %1, i32 noundef %2, ptr noundef %3, ptr noundef %4, i32 noundef %5) #0 {
  %7 = alloca ptr, align 8
  %8 = alloca ptr, align 8
  %9 = alloca i32, align 4
  %10 = alloca ptr, align 8
  %11 = alloca ptr, align 8
  %12 = alloca i32, align 4
  %13 = alloca i32, align 4
  %14 = alloca i32, align 4
  %15 = alloca i32, align 4
  %16 = alloca i32, align 4
  %17 = alloca i32, align 4
  %18 = alloca i32, align 4
  %19 = alloca i32, align 4
  %20 = alloca i32, align 4
  %21 = alloca i32, align 4
  store ptr %0, ptr %7, align 8, !tbaa !3
  store ptr %1, ptr %8, align 8, !tbaa !12
  store i32 %2, ptr %9, align 4, !tbaa !10
  store ptr %3, ptr %10, align 8, !tbaa !12
  store ptr %4, ptr %11, align 8, !tbaa !12
  store i32 %5, ptr %12, align 4, !tbaa !10
  call void @llvm.lifetime.start.p0(i64 4, ptr %13) #14
  call void @llvm.lifetime.start.p0(i64 4, ptr %14) #14
  call void @llvm.lifetime.start.p0(i64 4, ptr %15) #14
  call void @llvm.lifetime.start.p0(i64 4, ptr %16) #14
  call void @llvm.lifetime.start.p0(i64 4, ptr %17) #14
  %22 = load ptr, ptr %8, align 8, !tbaa !12
  %23 = call i32 @Vec_IntEntryLast(ptr noundef %22)
  store i32 %23, ptr %17, align 4, !tbaa !10
  %24 = load ptr, ptr %11, align 8, !tbaa !12
  call void @Vec_IntClear(ptr noundef %24)
  store i32 0, ptr %13, align 4, !tbaa !10
  br label %25

25:                                               ; preds = %141, %6
  %26 = load i32, ptr %13, align 4, !tbaa !10
  %27 = add nsw i32 %26, 1
  %28 = load ptr, ptr %8, align 8, !tbaa !12
  %29 = call i32 @Vec_IntSize(ptr noundef %28)
  %30 = icmp slt i32 %27, %29
  br i1 %30, label %31, label %40

31:                                               ; preds = %25
  %32 = load ptr, ptr %8, align 8, !tbaa !12
  %33 = load i32, ptr %13, align 4, !tbaa !10
  %34 = call i32 @Vec_IntEntry(ptr noundef %32, i32 noundef %33)
  store i32 %34, ptr %14, align 4, !tbaa !10
  br i1 true, label %35, label %40

35:                                               ; preds = %31
  %36 = load ptr, ptr %8, align 8, !tbaa !12
  %37 = load i32, ptr %13, align 4, !tbaa !10
  %38 = add nsw i32 %37, 1
  %39 = call i32 @Vec_IntEntry(ptr noundef %36, i32 noundef %38)
  store i32 %39, ptr %15, align 4, !tbaa !10
  br label %40

40:                                               ; preds = %35, %31, %25
  %41 = phi i1 [ false, %31 ], [ false, %25 ], [ true, %35 ]
  br i1 %41, label %42, label %144

42:                                               ; preds = %40
  call void @llvm.lifetime.start.p0(i64 4, ptr %18) #14
  %43 = load i32, ptr %14, align 4, !tbaa !10
  %44 = call i32 @Abc_Lit2Var(i32 noundef %43)
  store i32 %44, ptr %18, align 4, !tbaa !10
  call void @llvm.lifetime.start.p0(i64 4, ptr %19) #14
  %45 = load i32, ptr %15, align 4, !tbaa !10
  %46 = call i32 @Abc_Lit2Var(i32 noundef %45)
  store i32 %46, ptr %19, align 4, !tbaa !10
  call void @llvm.lifetime.start.p0(i64 4, ptr %20) #14
  %47 = load i32, ptr %18, align 4, !tbaa !10
  %48 = load i32, ptr %9, align 4, !tbaa !10
  %49 = icmp slt i32 %47, %48
  br i1 %49, label %50, label %54

50:                                               ; preds = %42
  %51 = load ptr, ptr %10, align 8, !tbaa !12
  %52 = load i32, ptr %18, align 4, !tbaa !10
  %53 = call i32 @Vec_IntEntry(ptr noundef %51, i32 noundef %52)
  br label %60

54:                                               ; preds = %42
  %55 = load ptr, ptr %11, align 8, !tbaa !12
  %56 = load i32, ptr %18, align 4, !tbaa !10
  %57 = load i32, ptr %9, align 4, !tbaa !10
  %58 = sub nsw i32 %56, %57
  %59 = call i32 @Vec_IntEntry(ptr noundef %55, i32 noundef %58)
  br label %60

60:                                               ; preds = %54, %50
  %61 = phi i32 [ %53, %50 ], [ %59, %54 ]
  store i32 %61, ptr %20, align 4, !tbaa !10
  call void @llvm.lifetime.start.p0(i64 4, ptr %21) #14
  %62 = load i32, ptr %19, align 4, !tbaa !10
  %63 = load i32, ptr %9, align 4, !tbaa !10
  %64 = icmp slt i32 %62, %63
  br i1 %64, label %65, label %69

65:                                               ; preds = %60
  %66 = load ptr, ptr %10, align 8, !tbaa !12
  %67 = load i32, ptr %19, align 4, !tbaa !10
  %68 = call i32 @Vec_IntEntry(ptr noundef %66, i32 noundef %67)
  br label %75

69:                                               ; preds = %60
  %70 = load ptr, ptr %11, align 8, !tbaa !12
  %71 = load i32, ptr %19, align 4, !tbaa !10
  %72 = load i32, ptr %9, align 4, !tbaa !10
  %73 = sub nsw i32 %71, %72
  %74 = call i32 @Vec_IntEntry(ptr noundef %70, i32 noundef %73)
  br label %75

75:                                               ; preds = %69, %65
  %76 = phi i32 [ %68, %65 ], [ %74, %69 ]
  store i32 %76, ptr %21, align 4, !tbaa !10
  %77 = load i32, ptr %18, align 4, !tbaa !10
  %78 = load i32, ptr %19, align 4, !tbaa !10
  %79 = icmp slt i32 %77, %78
  br i1 %79, label %80, label %106

80:                                               ; preds = %75
  %81 = load i32, ptr %12, align 4, !tbaa !10
  %82 = icmp ne i32 %81, 0
  br i1 %82, label %83, label %94

83:                                               ; preds = %80
  %84 = load ptr, ptr %7, align 8, !tbaa !3
  %85 = load i32, ptr %20, align 4, !tbaa !10
  %86 = load i32, ptr %14, align 4, !tbaa !10
  %87 = call i32 @Abc_LitIsCompl(i32 noundef %86)
  %88 = call i32 @Abc_LitNotCond(i32 noundef %85, i32 noundef %87)
  %89 = load i32, ptr %21, align 4, !tbaa !10
  %90 = load i32, ptr %15, align 4, !tbaa !10
  %91 = call i32 @Abc_LitIsCompl(i32 noundef %90)
  %92 = call i32 @Abc_LitNotCond(i32 noundef %89, i32 noundef %91)
  %93 = call i32 @Gia_ManHashAnd(ptr noundef %84, i32 noundef %88, i32 noundef %92)
  store i32 %93, ptr %16, align 4, !tbaa !10
  br label %105

94:                                               ; preds = %80
  %95 = load ptr, ptr %7, align 8, !tbaa !3
  %96 = load i32, ptr %20, align 4, !tbaa !10
  %97 = load i32, ptr %14, align 4, !tbaa !10
  %98 = call i32 @Abc_LitIsCompl(i32 noundef %97)
  %99 = call i32 @Abc_LitNotCond(i32 noundef %96, i32 noundef %98)
  %100 = load i32, ptr %21, align 4, !tbaa !10
  %101 = load i32, ptr %15, align 4, !tbaa !10
  %102 = call i32 @Abc_LitIsCompl(i32 noundef %101)
  %103 = call i32 @Abc_LitNotCond(i32 noundef %100, i32 noundef %102)
  %104 = call i32 @Gia_ManAppendAnd(ptr noundef %95, i32 noundef %99, i32 noundef %103)
  store i32 %104, ptr %16, align 4, !tbaa !10
  br label %105

105:                                              ; preds = %94, %83
  br label %138

106:                                              ; preds = %75
  %107 = load i32, ptr %18, align 4, !tbaa !10
  %108 = load i32, ptr %19, align 4, !tbaa !10
  %109 = icmp sgt i32 %107, %108
  br i1 %109, label %110, label %136

110:                                              ; preds = %106
  %111 = load i32, ptr %12, align 4, !tbaa !10
  %112 = icmp ne i32 %111, 0
  br i1 %112, label %113, label %124

113:                                              ; preds = %110
  %114 = load ptr, ptr %7, align 8, !tbaa !3
  %115 = load i32, ptr %20, align 4, !tbaa !10
  %116 = load i32, ptr %14, align 4, !tbaa !10
  %117 = call i32 @Abc_LitIsCompl(i32 noundef %116)
  %118 = call i32 @Abc_LitNotCond(i32 noundef %115, i32 noundef %117)
  %119 = load i32, ptr %21, align 4, !tbaa !10
  %120 = load i32, ptr %15, align 4, !tbaa !10
  %121 = call i32 @Abc_LitIsCompl(i32 noundef %120)
  %122 = call i32 @Abc_LitNotCond(i32 noundef %119, i32 noundef %121)
  %123 = call i32 @Gia_ManHashXor(ptr noundef %114, i32 noundef %118, i32 noundef %122)
  store i32 %123, ptr %16, align 4, !tbaa !10
  br label %135

124:                                              ; preds = %110
  %125 = load ptr, ptr %7, align 8, !tbaa !3
  %126 = load i32, ptr %20, align 4, !tbaa !10
  %127 = load i32, ptr %14, align 4, !tbaa !10
  %128 = call i32 @Abc_LitIsCompl(i32 noundef %127)
  %129 = call i32 @Abc_LitNotCond(i32 noundef %126, i32 noundef %128)
  %130 = load i32, ptr %21, align 4, !tbaa !10
  %131 = load i32, ptr %15, align 4, !tbaa !10
  %132 = call i32 @Abc_LitIsCompl(i32 noundef %131)
  %133 = call i32 @Abc_LitNotCond(i32 noundef %130, i32 noundef %132)
  %134 = call i32 @Gia_ManAppendXor(ptr noundef %125, i32 noundef %129, i32 noundef %133)
  store i32 %134, ptr %16, align 4, !tbaa !10
  br label %135

135:                                              ; preds = %124, %113
  br label %137

136:                                              ; preds = %106
  br label %137

137:                                              ; preds = %136, %135
  br label %138

138:                                              ; preds = %137, %105
  %139 = load ptr, ptr %11, align 8, !tbaa !12
  %140 = load i32, ptr %16, align 4, !tbaa !10
  call void @Vec_IntPush(ptr noundef %139, i32 noundef %140)
  call void @llvm.lifetime.end.p0(i64 4, ptr %21) #14
  call void @llvm.lifetime.end.p0(i64 4, ptr %20) #14
  call void @llvm.lifetime.end.p0(i64 4, ptr %19) #14
  call void @llvm.lifetime.end.p0(i64 4, ptr %18) #14
  br label %141

141:                                              ; preds = %138
  %142 = load i32, ptr %13, align 4, !tbaa !10
  %143 = add nsw i32 %142, 2
  store i32 %143, ptr %13, align 4, !tbaa !10
  br label %25, !llvm.loop !116

144:                                              ; preds = %40
  %145 = load ptr, ptr %11, align 8, !tbaa !12
  %146 = load ptr, ptr %8, align 8, !tbaa !12
  %147 = call i32 @Vec_IntSize(ptr noundef %146)
  %148 = sdiv i32 %147, 2
  %149 = sub nsw i32 %148, 1
  %150 = call i32 @Vec_IntEntry(ptr noundef %145, i32 noundef %149)
  store i32 %150, ptr %16, align 4, !tbaa !10
  %151 = load i32, ptr %16, align 4, !tbaa !10
  call void @llvm.lifetime.end.p0(i64 4, ptr %17) #14
  call void @llvm.lifetime.end.p0(i64 4, ptr %16) #14
  call void @llvm.lifetime.end.p0(i64 4, ptr %15) #14
  call void @llvm.lifetime.end.p0(i64 4, ptr %14) #14
  call void @llvm.lifetime.end.p0(i64 4, ptr %13) #14
  ret i32 %151
}