; Function Attrs: nounwind uwtable
define i32 @Gia_ManConstructFromMap(ptr noundef %0, ptr noundef readonly captures(none) %1, i32 noundef %2, ptr noundef readonly captures(none) %3, ptr noundef captures(none) initializes((4, 8)) %4, i32 noundef %5) local_unnamed_addr #0 {
  %7 = getelementptr i8, ptr %1, i64 4
  %8 = getelementptr i8, ptr %1, i64 8
  %9 = getelementptr inbounds nuw i8, ptr %4, i64 4
  store i32 0, ptr %9, align 4, !tbaa !28
  %.val6576 = load i32, ptr %7, align 4, !tbaa !28
  %10 = icmp sgt i32 %.val6576, 1
  %11 = getelementptr i8, ptr %4, i64 8
  br i1 %10, label %.lr.ph, label %..critedge_crit_edge

..critedge_crit_edge:                             ; preds = %6
  %.val66.pre = load ptr, ptr %11, align 8, !tbaa !30
  br label %.critedge

.lr.ph:                                           ; preds = %6
  %12 = getelementptr i8, ptr %3, i64 8
  %.not = icmp eq i32 %5, 0
  br label %13

13:                                               ; preds = %.lr.ph, %Vec_IntPush.exit
  %indvars.iv = phi i64 [ 0, %.lr.ph ], [ %indvars.iv.next, %Vec_IntPush.exit ]
  %.05577 = phi i32 [ undef, %.lr.ph ], [ %.1, %Vec_IntPush.exit ]
  %14 = or disjoint i64 %indvars.iv, 1
  %.val72 = load ptr, ptr %8, align 8, !tbaa !30
  %15 = getelementptr inbounds nuw i32, ptr %.val72, i64 %indvars.iv
  %16 = load i32, ptr %15, align 4, !tbaa !31
  %17 = getelementptr inbounds nuw i32, ptr %.val72, i64 %14
  %18 = load i32, ptr %17, align 4, !tbaa !31
  %19 = ashr i32 %16, 1
  %20 = ashr i32 %18, 1
  %21 = icmp slt i32 %19, %2
  %22 = select i1 %21, i32 0, i32 %2
  %.sink83 = sub nsw i32 %19, %22
  %.val69.sink.in = select i1 %21, ptr %12, ptr %11
  %.val69.sink = load ptr, ptr %.val69.sink.in, align 8, !tbaa !30
  %23 = sext i32 %.sink83 to i64
  %24 = getelementptr inbounds i32, ptr %.val69.sink, i64 %23
  %25 = load i32, ptr %24, align 4, !tbaa !31
  %26 = icmp slt i32 %20, %2
  %27 = select i1 %26, i32 0, i32 %2
  %.sink84 = sub nsw i32 %20, %27
  %.val67.sink.in = select i1 %26, ptr %12, ptr %11
  %.val67.sink = load ptr, ptr %.val67.sink.in, align 8, !tbaa !30
  %28 = sext i32 %.sink84 to i64
  %29 = getelementptr inbounds i32, ptr %.val67.sink, i64 %28
  %30 = load i32, ptr %29, align 4, !tbaa !31
  %31 = icmp slt i32 %19, %20
  br i1 %31, label %32, label %41

32:                                               ; preds = %13
  %33 = and i32 %16, 1
  %34 = xor i32 %25, %33
  %35 = and i32 %18, 1
  %36 = xor i32 %30, %35
  br i1 %.not, label %39, label %37

37:                                               ; preds = %32
  %38 = tail call i32 @Gia_ManHashAnd(ptr noundef %0, i32 noundef %34, i32 noundef %36) #32
  br label %59

39:                                               ; preds = %32
  %40 = tail call fastcc i32 @Gia_ManAppendAnd(ptr noundef %0, i32 noundef %34, i32 noundef %36)
  br label %59

41:                                               ; preds = %13
  %42 = icmp sgt i32 %19, %20
  br i1 %42, label %43, label %59

43:                                               ; preds = %41
  %44 = and i32 %16, 1
  %45 = xor i32 %25, %44
  %46 = and i32 %18, 1
  %47 = xor i32 %30, %46
  br i1 %.not, label %50, label %48

48:                                               ; preds = %43
  %49 = tail call i32 @Gia_ManHashXor(ptr noundef %0, i32 noundef %45, i32 noundef %47) #32
  br label %59

50:                                               ; preds = %43
  %51 = xor i32 %47, 1
  %52 = xor i32 %45, 1
  %53 = tail call fastcc i32 @Gia_ManAppendAnd(ptr noundef %0, i32 noundef %52, i32 noundef %47)
  %54 = tail call fastcc i32 @Gia_ManAppendAnd(ptr noundef %0, i32 noundef %45, i32 noundef %51)
  %55 = xor i32 %53, 1
  %56 = xor i32 %54, 1
  %57 = tail call fastcc i32 @Gia_ManAppendAnd(ptr noundef %0, i32 noundef %55, i32 noundef %56)
  %58 = xor i32 %57, 1
  br label %59

59:                                               ; preds = %50, %48, %41, %37, %39
  %.1 = phi i32 [ %38, %37 ], [ %40, %39 ], [ %49, %48 ], [ %58, %50 ], [ %.05577, %41 ]
  %60 = load i32, ptr %9, align 4, !tbaa !28
  %61 = load i32, ptr %4, align 8, !tbaa !29
  %62 = icmp eq i32 %60, %61
  br i1 %62, label %63, label %.Vec_IntGrow.exit10_crit_edge.i

.Vec_IntGrow.exit10_crit_edge.i:                  ; preds = %59
  %.pre.i = load ptr, ptr %11, align 8, !tbaa !30
  br label %Vec_IntPush.exit

63:                                               ; preds = %59
  %64 = icmp slt i32 %60, 16
  br i1 %64, label %65, label %72

65:                                               ; preds = %63
  %66 = load ptr, ptr %11, align 8, !tbaa !30
  %.not9.i.i = icmp eq ptr %66, null
  br i1 %.not9.i.i, label %69, label %67

67:                                               ; preds = %65
  %68 = tail call dereferenceable_or_null(64) ptr @realloc(ptr noundef nonnull %66, i64 noundef 64) #30
  br label %Vec_IntGrow.exit.i

69:                                               ; preds = %65
  %70 = tail call noalias dereferenceable_or_null(64) ptr @malloc(i64 noundef 64) #31
  br label %Vec_IntGrow.exit.i

Vec_IntGrow.exit.i:                               ; preds = %69, %67
  %71 = phi ptr [ %68, %67 ], [ %70, %69 ]
  store ptr %71, ptr %11, align 8, !tbaa !30
  store i32 16, ptr %4, align 8, !tbaa !29
  br label %Vec_IntPush.exit

72:                                               ; preds = %63
  %73 = shl nuw nsw i32 %60, 1
  %74 = load ptr, ptr %11, align 8, !tbaa !30
  %.not9.i9.i = icmp eq ptr %74, null
  %75 = zext nneg i32 %73 to i64
  %76 = shl nuw nsw i64 %75, 2
  br i1 %.not9.i9.i, label %79, label %77

77:                                               ; preds = %72
  %78 = tail call ptr @realloc(ptr noundef nonnull %74, i64 noundef %76) #30
  br label %81

79:                                               ; preds = %72
  %80 = tail call noalias ptr @malloc(i64 noundef %76) #31
  br label %81

81:                                               ; preds = %79, %77
  %82 = phi ptr [ %78, %77 ], [ %80, %79 ]
  store ptr %82, ptr %11, align 8, !tbaa !30
  store i32 %73, ptr %4, align 8, !tbaa !29
  br label %Vec_IntPush.exit

Vec_IntPush.exit:                                 ; preds = %.Vec_IntGrow.exit10_crit_edge.i, %Vec_IntGrow.exit.i, %81
  %83 = phi ptr [ %.pre.i, %.Vec_IntGrow.exit10_crit_edge.i ], [ %82, %81 ], [ %71, %Vec_IntGrow.exit.i ]
  %84 = load i32, ptr %9, align 4, !tbaa !28
  %85 = add nsw i32 %84, 1
  store i32 %85, ptr %9, align 4, !tbaa !28
  %86 = sext i32 %84 to i64
  %87 = getelementptr inbounds i32, ptr %83, i64 %86
  store i32 %.1, ptr %87, align 4, !tbaa !31
  %indvars.iv.next = add nuw nsw i64 %indvars.iv, 2
  %.val65 = load i32, ptr %7, align 4, !tbaa !28
  %88 = trunc i64 %indvars.iv.next to i32
  %89 = or disjoint i32 %88, 1
  %90 = icmp slt i32 %89, %.val65
  br i1 %90, label %13, label %.critedge, !llvm.loop !107

.critedge:                                        ; preds = %Vec_IntPush.exit, %..critedge_crit_edge
  %.val66 = phi ptr [ %.val66.pre, %..critedge_crit_edge ], [ %83, %Vec_IntPush.exit ]
  %.val65.lcssa = phi i32 [ %.val6576, %..critedge_crit_edge ], [ %.val65, %Vec_IntPush.exit ]
  %91 = sdiv i32 %.val65.lcssa, 2
  %92 = sext i32 %91 to i64
  %93 = getelementptr i32, ptr %.val66, i64 %92
  %94 = getelementptr i8, ptr %93, i64 -4
  %95 = load i32, ptr %94, align 4, !tbaa !31
  ret i32 %95
}